Certificate:
    Data:
        Version: 3 (0x2)
        Serial Number: 1 (0x1)
    Signature Algorithm: sha256WithRSAEncryption
        Issuer: CN=Easy-RSA CA
        Validity
            Not Before: Nov  5 01:23:00 2014 GMT
            Not After : Nov  2 01:23:00 2024 GMT
        Subject: CN=cyberus_server
        Subject Public Key Info:
            Public Key Algorithm: rsaEncryption
                Public-Key: (1024 bit)
                Modulus:
                    00:b0:af:0c:f2:f8:2b:ad:6e:65:5b:bd:92:d6:89:
                    70:aa:a3:17:f6:1f:1f:1c:cd:ac:2c:e5:a4:a2:26:
                    32:b4:45:30:5f:fd:4c:f8:82:ba:3c:fa:8f:79:85:
                    7e:e3:80:39:4a:8f:62:82:8c:93:20:f0:07:e3:e8:
                    7b:51:26:f8:cd:20:54:03:86:1a:6e:af:bd:9e:a9:
                    c2:0a:51:41:55:83:a1:0f:e5:b5:fb:2f:14:af:53:
                    cf:92:e2:7b:b2:c8:06:1b:78:8c:dd:0e:88:61:63:
                    0b:f6:76:b5:67:ee:c1:20:21:35:e3:77:c1:88:24:
                    91:26:f2:72:6b:1f:07:06:2f
                Exponent: 65537 (0x10001)
        X509v3 extensions:
            X509v3 Basic Constraints: 
                CA:FALSE
            X509v3 Subject Key Identifier: 
                FF:4B:AA:F6:1C:59:92:F2:66:4B:0C:D3:40:07:AE:0C:1B:93:41:15
            X509v3 Authority Key Identifier: 
                keyid:05:F4:95:4C:D9:2E:0F:DE:EF:60:B6:9C:4A:DC:88:FB:A5:CD:77:76
                DirName:/CN=Easy-RSA CA
                serial:80:FD:3E:5C:F6:9C:26:4D

            X509v3 Extended Key Usage: 
                TLS Web Server Authentication
            X509v3 Key Usage: 
                Digital Signature, Key Encipherment
    Signature Algorithm: sha256WithRSAEncryption
         a0:d6:2b:f6:5f:0d:f2:02:44:6e:e2:33:a7:0f:55:2f:6c:18:
         50:80:15:71:64:38:80:ca:03:7c:b5:c4:f5:c7:f1:ba:11:5a:
         c8:df:e2:26:24:b0:8a:92:c0:bb:61:de:36:8a:23:19:80:bf:
         87:ef:1b:a2:e4:84:08:58:05:84:40:da:4e:82:d3:2e:eb:21:
         35:62:40:41:cc:54:4a:71:04:df:4e:cf:e2:75:22:5a:49:ee:
         fc:d9:40:37:50:3a:57:c4:78:80:79:9c:5c:2b:63:d2:7b:ac:
         40:d5:a3:4b:60:60:d6:e6:ab:81:43:22:ca:65:21:36:df:e8:
         30:58
-----BEGIN CERTIFICATE-----
MIICPTCCAaagAwIBAgIBATANBgkqhkiG9w0BAQsFADAWMRQwEgYDVQQDEwtFYXN5
LVJTQSBDQTAeFw0xNDExMDUwMTIzMDBaFw0yNDExMDIwMTIzMDBaMBkxFzAVBgNV
BAMUDmN5YmVydXNfc2VydmVyMIGfMA0GCSqGSIb3DQEBAQUAA4GNADCBiQKBgQCw
rwzy+CutbmVbvZLWiXCqoxf2Hx8czaws5aSiJjK0RTBf/Uz4gro8+o95hX7jgDlK
j2KCjJMg8Afj6HtRJvjNIFQDhhpur72eqcIKUUFVg6EP5bX7LxSvU8+S4nuyyAYb
eIzdDohhYwv2drVn7sEgITXjd8GIJJEm8nJrHwcGLwIDAQABo4GXMIGUMAkGA1Ud
EwQCMAAwHQYDVR0OBBYEFP9LqvYcWZLyZksM00AHrgwbk0EVMEYGA1UdIwQ/MD2A
FAX0lUzZLg/e72C2nErciPulzXd2oRqkGDAWMRQwEgYDVQQDEwtFYXN5LVJTQSBD
QYIJAID9Plz2nCZNMBMGA1UdJQQMMAoGCCsGAQUFBwMBMAsGA1UdDwQEAwIFoDAN
BgkqhkiG9w0BAQsFAAOBgQCg1iv2Xw3yAkRu4jOnD1UvbBhQgBVxZDiAygN8tcT1
x/G6EVrI3+ImJLCKksC7Yd42iiMZgL+H7xui5IQIWAWEQNpOgtMu6yE1YkBBzFRK
cQTfTs/idSJaSe782UA3UDpXxHiAeZxcK2PSe6xA1aNLYGDW5quBQyLKZSE23+gw
WA==
-----END CERTIFICATE-----
