Certificate:
    Data:
        Version: 3 (0x2)
        Serial Number: 21 (0x15)
    Signature Algorithm: sha256WithRSAEncryption
        Issuer: CN=Easy-RSA CA
        Validity
            Not Before: Dec  3 09:17:22 2014 GMT
            Not After : Nov 30 09:17:22 2024 GMT
        Subject: CN=test1_server
        Subject Public Key Info:
            Public Key Algorithm: rsaEncryption
                Public-Key: (1024 bit)
                Modulus:
                    00:bb:25:49:39:10:a9:18:44:8c:a1:85:d8:4a:73:
                    5f:f8:73:09:da:c8:07:4d:f5:0f:85:f3:65:03:8f:
                    fe:19:d5:94:e8:96:98:8d:5b:4d:25:47:10:75:0b:
                    14:e6:6a:8a:1a:48:b1:7b:f9:3e:68:44:9d:bd:1e:
                    24:ca:a7:28:59:0e:b2:70:4a:8f:a6:30:eb:d7:51:
                    69:51:10:8b:fc:91:19:8e:ea:eb:47:3f:cd:b5:94:
                    6f:54:97:fe:bf:d2:f7:0b:6a:b8:31:fb:a8:c9:e6:
                    74:a3:c6:c5:d1:b6:9b:f3:86:5b:f6:11:c7:1d:59:
                    ae:c9:45:48:6a:eb:d9:99:cd
                Exponent: 65537 (0x10001)
        X509v3 extensions:
            X509v3 Basic Constraints: 
                CA:FALSE
            X509v3 Subject Key Identifier: 
                CB:44:2B:9D:9C:5D:D3:92:24:F3:AC:7A:C6:02:87:CE:FD:0E:D8:5C
            X509v3 Authority Key Identifier: 
                keyid:05:F4:95:4C:D9:2E:0F:DE:EF:60:B6:9C:4A:DC:88:FB:A5:CD:77:76
                DirName:/CN=Easy-RSA CA
                serial:80:FD:3E:5C:F6:9C:26:4D

            X509v3 Extended Key Usage: 
                TLS Web Server Authentication
            X509v3 Key Usage: 
                Digital Signature, Key Encipherment
    Signature Algorithm: sha256WithRSAEncryption
         81:21:2d:d0:32:0b:4c:cb:31:eb:7f:9a:b7:72:d1:43:c7:36:
         6e:76:2e:8e:1a:a9:72:23:8d:6b:35:7f:9e:f2:d4:24:ae:01:
         76:f8:75:0e:3c:ad:fa:89:3c:42:e4:2c:6d:c1:1f:ab:7f:f9:
         b8:2d:bf:42:e6:08:d5:92:54:5c:84:a1:af:29:a0:21:b1:9f:
         8b:0f:96:c2:8d:d8:b6:e5:db:d5:ac:52:b7:61:41:0b:39:54:
         6d:34:b7:fd:2b:18:06:7d:8e:37:12:3f:e2:c1:1e:b4:67:18:
         57:92:ea:eb:d9:f5:08:d8:31:93:0c:eb:09:74:53:41:ec:e7:
         4b:f2
-----BEGIN CERTIFICATE-----
MIICOzCCAaSgAwIBAgIBFTANBgkqhkiG9w0BAQsFADAWMRQwEgYDVQQDEwtFYXN5
LVJTQSBDQTAeFw0xNDEyMDMwOTE3MjJaFw0yNDExMzAwOTE3MjJaMBcxFTATBgNV
BAMUDHRlc3QxX3NlcnZlcjCBnzANBgkqhkiG9w0BAQEFAAOBjQAwgYkCgYEAuyVJ
ORCpGESMoYXYSnNf+HMJ2sgHTfUPhfNlA4/+GdWU6JaYjVtNJUcQdQsU5mqKGkix
e/k+aESdvR4kyqcoWQ6ycEqPpjDr11FpURCL/JEZjurrRz/NtZRvVJf+v9L3C2q4
MfuoyeZ0o8bF0bab84Zb9hHHHVmuyUVIauvZmc0CAwEAAaOBlzCBlDAJBgNVHRME
AjAAMB0GA1UdDgQWBBTLRCudnF3TkiTzrHrGAofO/Q7YXDBGBgNVHSMEPzA9gBQF
9JVM2S4P3u9gtpxK3Ij7pc13dqEapBgwFjEUMBIGA1UEAxMLRWFzeS1SU0EgQ0GC
CQCA/T5c9pwmTTATBgNVHSUEDDAKBggrBgEFBQcDATALBgNVHQ8EBAMCBaAwDQYJ
KoZIhvcNAQELBQADgYEAgSEt0DILTMsx63+at3LRQ8c2bnYujhqpciONazV/nvLU
JK4Bdvh1Djyt+ok8QuQsbcEfq3/5uC2/QuYI1ZJUXIShrymgIbGfiw+Wwo3YtuXb
1axSt2FBCzlUbTS3/SsYBn2ONxI/4sEetGcYV5Lq69n1CNgxkwzrCXRTQeznS/I=
-----END CERTIFICATE-----
