Certificate:
    Data:
        Version: 3 (0x2)
        Serial Number: 1 (0x1)
    Signature Algorithm: sha256WithRSAEncryption
        Issuer: CN=Easy-RSA CA
        Validity
            Not Before: Nov  3 10:56:39 2014 GMT
            Not After : Oct 31 10:56:39 2024 GMT
        Subject: CN=cyberus_client
        Subject Public Key Info:
            Public Key Algorithm: rsaEncryption
                Public-Key: (1024 bit)
                Modulus:
                    00:ca:77:eb:61:de:aa:42:8d:16:31:4f:7d:53:78:
                    b0:a6:6c:16:83:e5:49:e5:fc:d7:a3:c3:5d:bb:e5:
                    7e:71:91:9e:fb:5f:31:72:ae:42:a6:56:c3:5d:7d:
                    2f:ff:b0:ef:da:0a:89:a8:b3:66:5c:84:37:bd:8d:
                    0b:4f:6c:20:9a:7e:43:2a:5b:e8:2e:8a:16:78:f2:
                    28:4b:f1:6a:a2:36:5c:0d:96:ca:4c:af:0a:7d:06:
                    3c:c4:d2:78:e1:a5:f2:d1:6e:5a:25:6a:c9:30:86:
                    d1:44:7f:fc:b8:5e:4e:64:62:0d:20:52:ac:ca:3a:
                    1d:17:c4:a2:1d:8c:fe:2a:37
                Exponent: 65537 (0x10001)
        X509v3 extensions:
            X509v3 Basic Constraints: 
                CA:FALSE
            X509v3 Subject Key Identifier: 
                96:FB:CE:5A:5D:C2:0B:B7:EE:33:7F:FA:37:03:19:8D:B9:DB:BE:B6
            X509v3 Authority Key Identifier: 
                keyid:C8:71:70:E0:31:67:02:99:03:24:A4:C1:12:F1:F3:D6:51:82:E7:4F
                DirName:/CN=Easy-RSA CA
                serial:EF:F7:EC:FB:6E:19:DB:54

            X509v3 Extended Key Usage: 
                TLS Web Client Authentication
            X509v3 Key Usage: 
                Digital Signature
    Signature Algorithm: sha256WithRSAEncryption
         ab:d9:2a:b0:0c:58:43:7f:07:e9:bf:dc:56:c2:08:86:dd:d1:
         8a:d1:cf:d8:bb:07:4d:e9:5b:b3:90:c2:ad:83:a1:80:d8:03:
         8b:75:58:a9:eb:f5:e2:e0:7d:6b:ba:ff:72:eb:7f:3a:89:f5:
         b5:d2:40:b9:8c:63:b0:7c:ea:53:90:38:8f:6d:42:95:6e:c0:
         f3:6b:2a:6a:7d:ef:1f:a9:5d:07:5d:cb:d3:18:96:9f:06:60:
         1f:32:4d:ea:65:f1:1d:40:af:78:00:4d:1c:22:34:9a:b5:15:
         c8:8f:23:59:51:aa:20:13:47:75:4d:06:de:84:aa:a1:17:12:
         3b:8c
-----BEGIN CERTIFICATE-----
MIICPTCCAaagAwIBAgIBATANBgkqhkiG9w0BAQsFADAWMRQwEgYDVQQDEwtFYXN5
LVJTQSBDQTAeFw0xNDExMDMxMDU2MzlaFw0yNDEwMzExMDU2MzlaMBkxFzAVBgNV
BAMUDmN5YmVydXNfY2xpZW50MIGfMA0GCSqGSIb3DQEBAQUAA4GNADCBiQKBgQDK
d+th3qpCjRYxT31TeLCmbBaD5Unl/Nejw1275X5xkZ77XzFyrkKmVsNdfS//sO/a
Comos2ZchDe9jQtPbCCafkMqW+guihZ48ihL8WqiNlwNlspMrwp9BjzE0njhpfLR
blolaskwhtFEf/y4Xk5kYg0gUqzKOh0XxKIdjP4qNwIDAQABo4GXMIGUMAkGA1Ud
EwQCMAAwHQYDVR0OBBYEFJb7zlpdwgu37jN/+jcDGY252762MEYGA1UdIwQ/MD2A
FMhxcOAxZwKZAySkwRLx89ZRgudPoRqkGDAWMRQwEgYDVQQDEwtFYXN5LVJTQSBD
QYIJAO/37PtuGdtUMBMGA1UdJQQMMAoGCCsGAQUFBwMCMAsGA1UdDwQEAwIHgDAN
BgkqhkiG9w0BAQsFAAOBgQCr2SqwDFhDfwfpv9xWwgiG3dGK0c/YuwdN6VuzkMKt
g6GA2AOLdVip6/Xi4H1ruv9y6386ifW10kC5jGOwfOpTkDiPbUKVbsDzaypqfe8f
qV0HXcvTGJafBmAfMk3qZfEdQK94AE0cIjSatRXIjyNZUaogE0d1TQbehKqhFxI7
jA==
-----END CERTIFICATE-----
