Certificate:
    Data:
        Version: 3 (0x2)
        Serial Number: 2 (0x2)
    Signature Algorithm: sha256WithRSAEncryption
        Issuer: CN=Easy-RSA CA
        Validity
            Not Before: Nov  3 11:03:57 2014 GMT
            Not After : Oct 31 11:03:57 2024 GMT
        Subject: CN=cyberus_server
        Subject Public Key Info:
            Public Key Algorithm: rsaEncryption
                Public-Key: (1024 bit)
                Modulus:
                    00:c2:32:e3:b2:ba:e0:08:be:46:09:b0:ef:4b:f2:
                    9c:5a:07:2e:74:6f:c8:03:2f:2b:70:1a:33:77:19:
                    63:a5:d2:58:93:a1:69:70:89:a9:55:36:cf:08:ab:
                    b5:5b:23:6d:84:ae:73:a0:9d:b2:bc:cd:80:a7:7a:
                    0d:25:d0:30:83:2f:95:6f:6e:f2:c1:21:4d:bb:bd:
                    01:03:b9:17:72:21:3b:1d:09:04:bc:54:b1:15:ac:
                    9b:56:4a:9c:0a:ed:df:56:92:8c:84:41:82:c5:ea:
                    30:18:9c:c7:49:b3:f3:78:b9:04:25:9f:5a:16:5a:
                    16:82:9b:73:9d:3e:3a:37:7b
                Exponent: 65537 (0x10001)
        X509v3 extensions:
            X509v3 Basic Constraints: 
                CA:FALSE
            X509v3 Subject Key Identifier: 
                0C:EC:7F:74:AD:FB:36:01:8A:48:F2:9A:C0:2C:0F:1A:D7:CC:E4:63
            X509v3 Authority Key Identifier: 
                keyid:C8:71:70:E0:31:67:02:99:03:24:A4:C1:12:F1:F3:D6:51:82:E7:4F
                DirName:/CN=Easy-RSA CA
                serial:EF:F7:EC:FB:6E:19:DB:54

            X509v3 Extended Key Usage: 
                TLS Web Server Authentication
            X509v3 Key Usage: 
                Digital Signature, Key Encipherment
    Signature Algorithm: sha256WithRSAEncryption
         75:22:6d:f0:e0:7d:f3:52:c1:3a:05:fa:aa:2b:1f:91:c4:02:
         a7:36:ce:a1:0f:fd:3d:11:f9:87:8d:28:59:88:52:90:35:ed:
         f7:22:68:53:62:53:24:b1:7b:ea:27:3a:57:5e:bb:71:f5:64:
         6e:e4:e0:cc:74:1e:e6:d7:0d:53:04:46:94:4f:01:2d:69:e0:
         8e:56:91:11:c9:df:b3:20:ec:57:dc:5b:39:2b:1f:2f:d7:89:
         d8:04:f8:30:bc:8b:e5:cb:22:9a:e6:84:bf:84:75:15:55:4b:
         46:57:c6:33:c6:90:0b:1e:e9:0b:11:a1:a9:9b:78:de:a3:30:
         8c:cf
-----BEGIN CERTIFICATE-----
MIICPTCCAaagAwIBAgIBAjANBgkqhkiG9w0BAQsFADAWMRQwEgYDVQQDEwtFYXN5
LVJTQSBDQTAeFw0xNDExMDMxMTAzNTdaFw0yNDEwMzExMTAzNTdaMBkxFzAVBgNV
BAMUDmN5YmVydXNfc2VydmVyMIGfMA0GCSqGSIb3DQEBAQUAA4GNADCBiQKBgQDC
MuOyuuAIvkYJsO9L8pxaBy50b8gDLytwGjN3GWOl0liToWlwialVNs8Iq7VbI22E
rnOgnbK8zYCneg0l0DCDL5VvbvLBIU27vQEDuRdyITsdCQS8VLEVrJtWSpwK7d9W
koyEQYLF6jAYnMdJs/N4uQQln1oWWhaCm3OdPjo3ewIDAQABo4GXMIGUMAkGA1Ud
EwQCMAAwHQYDVR0OBBYEFAzsf3St+zYBikjymsAsDxrXzORjMEYGA1UdIwQ/MD2A
FMhxcOAxZwKZAySkwRLx89ZRgudPoRqkGDAWMRQwEgYDVQQDEwtFYXN5LVJTQSBD
QYIJAO/37PtuGdtUMBMGA1UdJQQMMAoGCCsGAQUFBwMBMAsGA1UdDwQEAwIFoDAN
BgkqhkiG9w0BAQsFAAOBgQB1Im3w4H3zUsE6BfqqKx+RxAKnNs6hD/09EfmHjShZ
iFKQNe33ImhTYlMksXvqJzpXXrtx9WRu5ODMdB7m1w1TBEaUTwEtaeCOVpERyd+z
IOxX3Fs5Kx8v14nYBPgwvIvlyyKa5oS/hHUVVUtGV8YzxpALHukLEaGpm3jeozCM
zw==
-----END CERTIFICATE-----
