Certificate:
    Data:
        Version: 3 (0x2)
        Serial Number: 3 (0x3)
    Signature Algorithm: sha256WithRSAEncryption
        Issuer: CN=Easy-RSA CA
        Validity
            Not Before: Nov 17 14:46:11 2014 GMT
            Not After : Nov 14 14:46:11 2024 GMT
        Subject: CN=lol
        Subject Public Key Info:
            Public Key Algorithm: rsaEncryption
                Public-Key: (1024 bit)
                Modulus:
                    00:d5:c1:f5:e4:af:c7:d6:fa:6c:73:40:6e:ee:40:
                    68:08:e7:be:6d:e3:fe:08:71:f5:84:bb:af:59:9f:
                    51:12:2d:46:76:1e:27:09:d5:02:1a:6d:9f:9c:d4:
                    78:ba:bd:99:ed:ed:30:87:62:2f:50:72:ed:f6:98:
                    9d:f4:15:af:3f:01:74:05:4b:6d:1f:9a:83:7a:e7:
                    a6:c8:6d:67:13:e4:6b:1d:20:c0:c8:4c:67:f8:4f:
                    58:3b:84:ab:c7:78:55:65:8e:7c:dc:19:7c:d2:d8:
                    72:b0:e1:66:63:fa:75:0a:cc:12:c0:ea:31:de:e0:
                    fd:8c:e3:94:3b:83:af:78:df
                Exponent: 65537 (0x10001)
        X509v3 extensions:
            X509v3 Basic Constraints: 
                CA:FALSE
            X509v3 Subject Key Identifier: 
                CF:2F:5D:7D:BF:56:D8:50:6D:7C:D4:AD:A2:E8:08:2D:96:0B:43:97
            X509v3 Authority Key Identifier: 
                keyid:05:F4:95:4C:D9:2E:0F:DE:EF:60:B6:9C:4A:DC:88:FB:A5:CD:77:76
                DirName:/CN=Easy-RSA CA
                serial:80:FD:3E:5C:F6:9C:26:4D

            X509v3 Extended Key Usage: 
                TLS Web Client Authentication
            X509v3 Key Usage: 
                Digital Signature
    Signature Algorithm: sha256WithRSAEncryption
         7b:6e:9d:de:bf:66:77:43:b0:66:dc:e0:90:08:35:12:30:d5:
         e8:ad:3e:c4:1f:69:25:a0:39:c6:48:17:b1:3d:9d:60:4e:31:
         64:c9:b7:a7:c8:83:a3:b2:f5:d7:fe:37:6d:13:0a:bd:4c:d6:
         40:30:76:4c:0c:37:36:d2:f7:02:ae:56:15:a7:7b:29:60:13:
         71:95:a0:99:32:1b:8c:d4:7e:61:2d:e7:5b:d0:8a:ee:48:8b:
         36:a5:7c:bf:60:91:dd:92:59:a2:fd:7a:24:a5:1d:88:3e:02:
         5b:ef:64:10:51:bb:4c:7c:d3:67:6f:57:6e:01:93:1f:9e:cc:
         6e:d6
-----BEGIN CERTIFICATE-----
MIICMjCCAZugAwIBAgIBAzANBgkqhkiG9w0BAQsFADAWMRQwEgYDVQQDEwtFYXN5
LVJTQSBDQTAeFw0xNDExMTcxNDQ2MTFaFw0yNDExMTQxNDQ2MTFaMA4xDDAKBgNV
BAMTA2xvbDCBnzANBgkqhkiG9w0BAQEFAAOBjQAwgYkCgYEA1cH15K/H1vpsc0Bu
7kBoCOe+beP+CHH1hLuvWZ9REi1Gdh4nCdUCGm2fnNR4ur2Z7e0wh2IvUHLt9pid
9BWvPwF0BUttH5qDeuemyG1nE+RrHSDAyExn+E9YO4Srx3hVZY583Bl80thysOFm
Y/p1CswSwOox3uD9jOOUO4OveN8CAwEAAaOBlzCBlDAJBgNVHRMEAjAAMB0GA1Ud
DgQWBBTPL119v1bYUG181K2i6AgtlgtDlzBGBgNVHSMEPzA9gBQF9JVM2S4P3u9g
tpxK3Ij7pc13dqEapBgwFjEUMBIGA1UEAxMLRWFzeS1SU0EgQ0GCCQCA/T5c9pwm
TTATBgNVHSUEDDAKBggrBgEFBQcDAjALBgNVHQ8EBAMCB4AwDQYJKoZIhvcNAQEL
BQADgYEAe26d3r9md0OwZtzgkAg1EjDV6K0+xB9pJaA5xkgXsT2dYE4xZMm3p8iD
o7L11/43bRMKvUzWQDB2TAw3NtL3Aq5WFad7KWATcZWgmTIbjNR+YS3nW9CK7kiL
NqV8v2CR3ZJZov16JKUdiD4CW+9kEFG7THzTZ29XbgGTH57MbtY=
-----END CERTIFICATE-----
