Certificate:
    Data:
        Version: 3 (0x2)
        Serial Number: 4 (0x4)
    Signature Algorithm: sha256WithRSAEncryption
        Issuer: CN=Easy-RSA CA
        Validity
            Not Before: Nov 19 13:33:37 2014 GMT
            Not After : Nov 16 13:33:37 2024 GMT
        Subject: CN=>
        Subject Public Key Info:
            Public Key Algorithm: rsaEncryption
                Public-Key: (1024 bit)
                Modulus:
                    00:ca:82:00:6c:d1:5b:cb:23:f0:08:d9:23:c4:1b:
                    2a:da:45:97:f6:d1:7e:df:ad:af:0c:d1:e1:52:23:
                    f8:fc:a8:c4:91:9b:b9:10:39:19:30:f7:47:10:f2:
                    7d:bd:a9:05:18:9d:a1:23:f8:22:f5:71:b3:8a:d1:
                    26:dc:24:3e:20:45:e1:c5:72:af:03:a6:e4:8f:23:
                    74:a7:97:9b:14:6a:61:f9:85:76:b1:be:77:6b:3e:
                    09:ba:8b:16:7a:26:dd:f8:00:72:34:d6:a1:91:c7:
                    97:9a:82:6d:ce:6f:99:3e:03:f3:48:75:b1:7f:6c:
                    d6:7d:0d:8e:50:4f:e3:28:9b
                Exponent: 65537 (0x10001)
        X509v3 extensions:
            X509v3 Basic Constraints: 
                CA:FALSE
            X509v3 Subject Key Identifier: 
                89:62:83:39:FA:18:82:FB:99:26:09:06:78:06:01:B4:E1:0F:6D:5A
            X509v3 Authority Key Identifier: 
                keyid:05:F4:95:4C:D9:2E:0F:DE:EF:60:B6:9C:4A:DC:88:FB:A5:CD:77:76
                DirName:/CN=Easy-RSA CA
                serial:80:FD:3E:5C:F6:9C:26:4D

            X509v3 Extended Key Usage: 
                TLS Web Server Authentication
            X509v3 Key Usage: 
                Digital Signature, Key Encipherment
    Signature Algorithm: sha256WithRSAEncryption
         00:3e:bc:b7:23:78:c2:5c:a0:bd:d9:13:d4:5c:42:40:cd:e8:
         b5:94:fb:ea:f6:d3:a1:00:2d:cb:67:a5:03:e1:89:39:5d:da:
         68:fa:ed:c5:5a:b3:01:a8:ff:ef:83:d6:d6:3e:61:1e:5d:35:
         ed:6b:a5:2b:8e:97:14:be:c5:45:41:9d:0e:c6:0c:a2:be:76:
         e7:86:48:7e:9c:43:54:e2:5c:e9:01:20:b4:dc:25:a4:a7:43:
         93:c6:fb:a2:ed:80:fa:05:96:3e:49:54:16:46:e7:ba:2e:78:
         b9:4d:10:51:20:55:12:b9:e6:a3:97:a5:01:9d:c1:d3:37:9e:
         f9:93
-----BEGIN CERTIFICATE-----
MIICMDCCAZmgAwIBAgIBBDANBgkqhkiG9w0BAQsFADAWMRQwEgYDVQQDEwtFYXN5
LVJTQSBDQTAeFw0xNDExMTkxMzMzMzdaFw0yNDExMTYxMzMzMzdaMAwxCjAIBgNV
BAMUAT4wgZ8wDQYJKoZIhvcNAQEBBQADgY0AMIGJAoGBAMqCAGzRW8sj8AjZI8Qb
KtpFl/bRft+trwzR4VIj+PyoxJGbuRA5GTD3RxDyfb2pBRidoSP4IvVxs4rRJtwk
PiBF4cVyrwOm5I8jdKeXmxRqYfmFdrG+d2s+CbqLFnom3fgAcjTWoZHHl5qCbc5v
mT4D80h1sX9s1n0NjlBP4yibAgMBAAGjgZcwgZQwCQYDVR0TBAIwADAdBgNVHQ4E
FgQUiWKDOfoYgvuZJgkGeAYBtOEPbVowRgYDVR0jBD8wPYAUBfSVTNkuD97vYLac
StyI+6XNd3ahGqQYMBYxFDASBgNVBAMTC0Vhc3ktUlNBIENBggkAgP0+XPacJk0w
EwYDVR0lBAwwCgYIKwYBBQUHAwEwCwYDVR0PBAQDAgWgMA0GCSqGSIb3DQEBCwUA
A4GBAAA+vLcjeMJcoL3ZE9RcQkDN6LWU++r206EALctnpQPhiTld2mj67cVaswGo
/++D1tY+YR5dNe1rpSuOlxS+xUVBnQ7GDKK+dueGSH6cQ1TiXOkBILTcJaSnQ5PG
+6LtgPoFlj5JVBZG57oueLlNEFEgVRK55qOXpQGdwdM3nvmT
-----END CERTIFICATE-----
