Certificate:
    Data:
        Version: 3 (0x2)
        Serial Number: 5 (0x5)
    Signature Algorithm: sha256WithRSAEncryption
        Issuer: CN=Easy-RSA CA
        Validity
            Not Before: Nov 19 13:55:33 2014 GMT
            Not After : Nov 16 13:55:33 2024 GMT
        Subject: CN=>
        Subject Public Key Info:
            Public Key Algorithm: rsaEncryption
                Public-Key: (1024 bit)
                Modulus:
                    00:b6:99:cc:7a:fc:e0:7c:77:5a:27:85:45:84:5c:
                    31:21:d4:79:7a:68:df:c4:d8:bd:1b:8e:92:c7:f5:
                    47:2d:ba:8e:e4:6f:88:b1:52:f9:b2:31:a3:8c:e9:
                    e7:a9:8f:65:79:f5:78:cd:b6:89:9f:0a:43:13:56:
                    6a:e4:a2:6c:ec:e9:4f:9f:a1:ba:7c:1b:1b:2b:5e:
                    a0:9f:6f:42:93:20:7e:09:9d:68:5b:5b:1c:6d:2e:
                    b0:6c:54:de:4d:26:c1:b7:63:ba:d1:6c:f9:a6:12:
                    52:b7:30:59:39:d4:c9:bd:54:ed:ac:85:96:43:02:
                    68:9d:39:20:13:71:c9:06:67
                Exponent: 65537 (0x10001)
        X509v3 extensions:
            X509v3 Basic Constraints: 
                CA:FALSE
            X509v3 Subject Key Identifier: 
                4F:D2:BB:55:D2:80:79:0D:FF:F1:03:B3:EE:EC:96:71:99:67:0D:F3
            X509v3 Authority Key Identifier: 
                keyid:05:F4:95:4C:D9:2E:0F:DE:EF:60:B6:9C:4A:DC:88:FB:A5:CD:77:76
                DirName:/CN=Easy-RSA CA
                serial:80:FD:3E:5C:F6:9C:26:4D

            X509v3 Extended Key Usage: 
                TLS Web Client Authentication
            X509v3 Key Usage: 
                Digital Signature
    Signature Algorithm: sha256WithRSAEncryption
         01:67:7a:ba:3b:73:7f:ce:d9:5e:96:22:38:76:e2:3b:05:c6:
         45:9f:26:41:a1:05:fa:32:66:2e:13:a9:54:ec:71:50:51:0b:
         92:38:33:8a:a7:2d:f8:72:7b:1f:57:0e:44:c3:dc:2c:a4:94:
         f4:ce:35:fa:61:1f:09:99:5f:66:8d:5a:7d:92:7b:3b:c6:27:
         a8:b5:18:47:88:23:15:03:c3:cc:58:02:36:06:8e:4b:30:9d:
         26:56:ff:7a:90:37:aa:18:12:bd:9c:98:3e:8b:58:b3:1f:92:
         d8:ad:19:25:2c:fc:50:d8:c5:b1:8e:db:2b:4c:4c:d9:1f:7e:
         aa:06
-----BEGIN CERTIFICATE-----
MIICMDCCAZmgAwIBAgIBBTANBgkqhkiG9w0BAQsFADAWMRQwEgYDVQQDEwtFYXN5
LVJTQSBDQTAeFw0xNDExMTkxMzU1MzNaFw0yNDExMTYxMzU1MzNaMAwxCjAIBgNV
BAMUAT4wgZ8wDQYJKoZIhvcNAQEBBQADgY0AMIGJAoGBALaZzHr84Hx3WieFRYRc
MSHUeXpo38TYvRuOksf1Ry26juRviLFS+bIxo4zp56mPZXn1eM22iZ8KQxNWauSi
bOzpT5+hunwbGyteoJ9vQpMgfgmdaFtbHG0usGxU3k0mwbdjutFs+aYSUrcwWTnU
yb1U7ayFlkMCaJ05IBNxyQZnAgMBAAGjgZcwgZQwCQYDVR0TBAIwADAdBgNVHQ4E
FgQUT9K7VdKAeQ3/8QOz7uyWcZlnDfMwRgYDVR0jBD8wPYAUBfSVTNkuD97vYLac
StyI+6XNd3ahGqQYMBYxFDASBgNVBAMTC0Vhc3ktUlNBIENBggkAgP0+XPacJk0w
EwYDVR0lBAwwCgYIKwYBBQUHAwIwCwYDVR0PBAQDAgeAMA0GCSqGSIb3DQEBCwUA
A4GBAAFnero7c3/O2V6WIjh24jsFxkWfJkGhBfoyZi4TqVTscVBRC5I4M4qnLfhy
ex9XDkTD3CyklPTONfphHwmZX2aNWn2SezvGJ6i1GEeIIxUDw8xYAjYGjkswnSZW
/3qQN6oYEr2cmD6LWLMfktitGSUs/FDYxbGO2ytMTNkffqoG
-----END CERTIFICATE-----
