Certificate:
    Data:
        Version: 3 (0x2)
        Serial Number: 6 (0x6)
    Signature Algorithm: sha256WithRSAEncryption
        Issuer: CN=Easy-RSA CA
        Validity
            Not Before: Nov 19 14:04:36 2014 GMT
            Not After : Nov 16 14:04:36 2024 GMT
        Subject: CN=> 
        Subject Public Key Info:
            Public Key Algorithm: rsaEncryption
                Public-Key: (1024 bit)
                Modulus:
                    00:c8:1e:c8:44:65:52:7a:95:1f:4c:90:91:be:e3:
                    ac:2f:d8:06:f0:6f:46:06:44:4f:95:cb:f4:58:6a:
                    2e:1d:4a:37:2d:b9:13:3a:7e:0f:89:59:b9:39:d3:
                    eb:46:b7:b8:85:43:d8:26:67:75:c8:8a:1a:00:8c:
                    5b:01:6e:ac:37:3c:ac:0c:e7:d1:37:9c:cf:f1:db:
                    da:85:25:41:cb:59:4f:06:26:c9:70:58:2d:e3:d6:
                    85:70:21:14:6f:4f:b9:f8:a4:9b:9f:63:5f:10:63:
                    c0:56:c8:f7:74:53:1a:79:d7:db:f2:12:3f:76:10:
                    29:d9:8f:d1:7f:65:08:67:11
                Exponent: 65537 (0x10001)
        X509v3 extensions:
            X509v3 Basic Constraints: 
                CA:FALSE
            X509v3 Subject Key Identifier: 
                C9:2D:3D:84:59:C8:DE:CC:DA:43:08:AB:61:09:A5:59:24:CD:26:4C
            X509v3 Authority Key Identifier: 
                keyid:05:F4:95:4C:D9:2E:0F:DE:EF:60:B6:9C:4A:DC:88:FB:A5:CD:77:76
                DirName:/CN=Easy-RSA CA
                serial:80:FD:3E:5C:F6:9C:26:4D

            X509v3 Extended Key Usage: 
                TLS Web Client Authentication
            X509v3 Key Usage: 
                Digital Signature
    Signature Algorithm: sha256WithRSAEncryption
         29:7d:e1:38:51:ee:6c:39:18:c2:ee:20:da:ef:7c:63:6c:80:
         e4:9a:7d:20:92:ad:f6:04:ef:d2:7e:85:e0:41:4d:fb:e6:6b:
         2e:13:23:f6:3c:21:dd:33:66:35:62:20:82:82:67:a0:9c:ad:
         9c:e9:f8:76:be:55:1d:61:b5:cc:e0:bf:28:86:a6:ff:2f:d6:
         75:03:95:12:f0:94:08:57:43:9c:00:85:76:e4:fb:09:87:9f:
         b6:73:38:be:19:a5:9f:98:66:94:18:18:68:cd:72:dc:9a:70:
         87:77:f2:87:b6:35:78:83:8c:35:3f:85:c3:5d:f6:9b:45:69:
         b0:72
-----BEGIN CERTIFICATE-----
MIICMTCCAZqgAwIBAgIBBjANBgkqhkiG9w0BAQsFADAWMRQwEgYDVQQDEwtFYXN5
LVJTQSBDQTAeFw0xNDExMTkxNDA0MzZaFw0yNDExMTYxNDA0MzZaMA0xCzAJBgNV
BAMUAj4gMIGfMA0GCSqGSIb3DQEBAQUAA4GNADCBiQKBgQDIHshEZVJ6lR9MkJG+
46wv2Abwb0YGRE+Vy/RYai4dSjctuRM6fg+JWbk50+tGt7iFQ9gmZ3XIihoAjFsB
bqw3PKwM59E3nM/x29qFJUHLWU8GJslwWC3j1oVwIRRvT7n4pJufY18QY8BWyPd0
Uxp519vyEj92ECnZj9F/ZQhnEQIDAQABo4GXMIGUMAkGA1UdEwQCMAAwHQYDVR0O
BBYEFMktPYRZyN7M2kMIq2EJpVkkzSZMMEYGA1UdIwQ/MD2AFAX0lUzZLg/e72C2
nErciPulzXd2oRqkGDAWMRQwEgYDVQQDEwtFYXN5LVJTQSBDQYIJAID9Plz2nCZN
MBMGA1UdJQQMMAoGCCsGAQUFBwMCMAsGA1UdDwQEAwIHgDANBgkqhkiG9w0BAQsF
AAOBgQApfeE4Ue5sORjC7iDa73xjbIDkmn0gkq32BO/SfoXgQU375msuEyP2PCHd
M2Y1YiCCgmegnK2c6fh2vlUdYbXM4L8ohqb/L9Z1A5US8JQIV0OcAIV25PsJh5+2
czi+GaWfmGaUGBhozXLcmnCHd/KHtjV4g4w1P4XDXfabRWmwcg==
-----END CERTIFICATE-----
