Certificate:
    Data:
        Version: 3 (0x2)
        Serial Number: 7 (0x7)
    Signature Algorithm: sha256WithRSAEncryption
        Issuer: CN=Easy-RSA CA
        Validity
            Not Before: Nov 19 14:11:37 2014 GMT
            Not After : Nov 16 14:11:37 2024 GMT
        Subject: CN=t0_server
        Subject Public Key Info:
            Public Key Algorithm: rsaEncryption
                Public-Key: (1024 bit)
                Modulus:
                    00:c0:ba:ed:38:a6:2d:af:fb:47:c3:c6:25:24:3f:
                    14:2f:0b:1f:e9:fa:bf:aa:8c:60:b8:1e:38:cc:95:
                    ff:88:a9:ba:2e:58:f7:e6:bb:e1:6c:1b:f4:d5:52:
                    64:d3:56:3b:29:b2:4d:73:a9:73:59:8e:ab:bd:6e:
                    bf:8d:1f:e6:a8:1b:ae:ba:55:07:9b:86:43:d5:fc:
                    b3:09:42:e8:42:4b:7d:03:1d:42:10:62:b7:e1:b6:
                    25:36:fa:23:0c:75:a5:66:16:27:e8:52:88:ed:e8:
                    d5:d4:97:dc:78:10:98:6a:46:e7:ae:2a:91:90:c3:
                    56:8b:4f:4a:ad:58:d3:ff:db
                Exponent: 65537 (0x10001)
        X509v3 extensions:
            X509v3 Basic Constraints: 
                CA:FALSE
            X509v3 Subject Key Identifier: 
                25:1A:FB:2B:69:D2:AD:78:53:8B:CF:CC:4E:05:EE:CE:5F:E2:9C:42
            X509v3 Authority Key Identifier: 
                keyid:05:F4:95:4C:D9:2E:0F:DE:EF:60:B6:9C:4A:DC:88:FB:A5:CD:77:76
                DirName:/CN=Easy-RSA CA
                serial:80:FD:3E:5C:F6:9C:26:4D

            X509v3 Extended Key Usage: 
                TLS Web Server Authentication
            X509v3 Key Usage: 
                Digital Signature, Key Encipherment
    Signature Algorithm: sha256WithRSAEncryption
         4c:3d:ad:96:2d:75:cf:e8:af:be:0e:14:b1:41:48:2e:37:df:
         28:67:a7:66:e2:ef:4e:9e:83:50:73:d5:e2:18:60:b9:e3:c1:
         92:ac:64:fa:8d:0a:f1:41:1b:42:42:28:a1:a4:54:62:9a:ca:
         82:6c:d0:ad:6c:f9:61:4a:c3:3c:b8:8e:08:0f:59:e0:c2:3b:
         c6:58:40:09:bb:3d:23:f2:96:b7:b2:10:34:0d:ec:9d:4c:17:
         98:75:25:66:48:21:30:e4:44:cc:76:94:e8:b5:aa:4a:e9:d4:
         bd:72:e8:df:0c:b9:27:66:93:98:50:a8:17:16:61:be:b2:55:
         9c:fb
-----BEGIN CERTIFICATE-----
MIICODCCAaGgAwIBAgIBBzANBgkqhkiG9w0BAQsFADAWMRQwEgYDVQQDEwtFYXN5
LVJTQSBDQTAeFw0xNDExMTkxNDExMzdaFw0yNDExMTYxNDExMzdaMBQxEjAQBgNV
BAMUCXQwX3NlcnZlcjCBnzANBgkqhkiG9w0BAQEFAAOBjQAwgYkCgYEAwLrtOKYt
r/tHw8YlJD8ULwsf6fq/qoxguB44zJX/iKm6Llj35rvhbBv01VJk01Y7KbJNc6lz
WY6rvW6/jR/mqBuuulUHm4ZD1fyzCULoQkt9Ax1CEGK34bYlNvojDHWlZhYn6FKI
7ejV1JfceBCYakbnriqRkMNWi09KrVjT/9sCAwEAAaOBlzCBlDAJBgNVHRMEAjAA
MB0GA1UdDgQWBBQlGvsradKteFOLz8xOBe7OX+KcQjBGBgNVHSMEPzA9gBQF9JVM
2S4P3u9gtpxK3Ij7pc13dqEapBgwFjEUMBIGA1UEAxMLRWFzeS1SU0EgQ0GCCQCA
/T5c9pwmTTATBgNVHSUEDDAKBggrBgEFBQcDATALBgNVHQ8EBAMCBaAwDQYJKoZI
hvcNAQELBQADgYEATD2tli11z+ivvg4UsUFILjffKGenZuLvTp6DUHPV4hhguePB
kqxk+o0K8UEbQkIooaRUYprKgmzQrWz5YUrDPLiOCA9Z4MI7xlhACbs9I/KWt7IQ
NA3snUwXmHUlZkghMOREzHaU6LWqSunUvXLo3wy5J2aTmFCoFxZhvrJVnPs=
-----END CERTIFICATE-----
