Certificate:
    Data:
        Version: 3 (0x2)
        Serial Number: 8 (0x8)
    Signature Algorithm: sha256WithRSAEncryption
        Issuer: CN=Easy-RSA CA
        Validity
            Not Before: Nov 19 14:19:18 2014 GMT
            Not After : Nov 16 14:19:18 2024 GMT
        Subject: CN=adrien_client
        Subject Public Key Info:
            Public Key Algorithm: rsaEncryption
                Public-Key: (1024 bit)
                Modulus:
                    00:9c:8e:b1:a3:d8:8c:15:bc:a7:bc:6a:e6:4b:e7:
                    ef:ff:45:b7:da:25:f3:e6:a8:c1:df:95:8d:d3:6b:
                    f5:f7:bd:ab:20:78:9b:f6:aa:43:3a:e7:6a:03:c9:
                    10:a8:09:0e:b4:eb:18:bb:6c:4d:03:80:4f:63:d7:
                    43:9b:23:2e:7e:a4:b5:fb:45:d7:b5:4c:c1:0b:51:
                    c9:ee:61:85:db:32:72:32:ab:ec:d1:aa:69:a9:5a:
                    18:21:af:f6:5e:d4:db:18:ae:c6:ac:57:22:5f:18:
                    95:42:6d:39:78:65:97:2e:15:58:b1:2e:e4:d4:52:
                    ee:34:8f:38:82:2c:00:42:21
                Exponent: 65537 (0x10001)
        X509v3 extensions:
            X509v3 Basic Constraints: 
                CA:FALSE
            X509v3 Subject Key Identifier: 
                1F:5C:CD:0B:96:BE:00:9F:62:FF:56:5E:AC:57:D9:03:E9:00:B2:C3
            X509v3 Authority Key Identifier: 
                keyid:05:F4:95:4C:D9:2E:0F:DE:EF:60:B6:9C:4A:DC:88:FB:A5:CD:77:76
                DirName:/CN=Easy-RSA CA
                serial:80:FD:3E:5C:F6:9C:26:4D

            X509v3 Extended Key Usage: 
                TLS Web Client Authentication
            X509v3 Key Usage: 
                Digital Signature
    Signature Algorithm: sha256WithRSAEncryption
         9d:95:23:92:a4:1c:34:ee:09:c0:10:fd:ff:b2:84:b8:3c:80:
         dc:af:56:52:97:d8:c2:15:1b:40:82:d2:ef:5a:0c:57:bd:c6:
         3e:0b:81:f6:7b:c9:f5:f4:12:9d:80:4c:4e:b8:07:b4:4b:02:
         45:2d:d3:d8:fc:32:d4:19:99:ca:83:f0:b5:e9:06:e3:71:04:
         3f:32:2e:18:cf:19:36:9c:ad:01:ce:73:04:f7:c3:ec:04:fb:
         fa:42:b9:ec:f2:ca:18:05:9e:b2:f4:35:da:10:1e:26:10:72:
         29:1b:37:c2:e4:7d:22:ca:ef:35:3e:a8:e9:eb:1e:e1:5b:4e:
         49:21
-----BEGIN CERTIFICATE-----
MIICPDCCAaWgAwIBAgIBCDANBgkqhkiG9w0BAQsFADAWMRQwEgYDVQQDEwtFYXN5
LVJTQSBDQTAeFw0xNDExMTkxNDE5MThaFw0yNDExMTYxNDE5MThaMBgxFjAUBgNV
BAMUDWFkcmllbl9jbGllbnQwgZ8wDQYJKoZIhvcNAQEBBQADgY0AMIGJAoGBAJyO
saPYjBW8p7xq5kvn7/9Ft9ol8+aowd+VjdNr9fe9qyB4m/aqQzrnagPJEKgJDrTr
GLtsTQOAT2PXQ5sjLn6ktftF17VMwQtRye5hhdsycjKr7NGqaalaGCGv9l7U2xiu
xqxXIl8YlUJtOXhlly4VWLEu5NRS7jSPOIIsAEIhAgMBAAGjgZcwgZQwCQYDVR0T
BAIwADAdBgNVHQ4EFgQUH1zNC5a+AJ9i/1ZerFfZA+kAssMwRgYDVR0jBD8wPYAU
BfSVTNkuD97vYLacStyI+6XNd3ahGqQYMBYxFDASBgNVBAMTC0Vhc3ktUlNBIENB
ggkAgP0+XPacJk0wEwYDVR0lBAwwCgYIKwYBBQUHAwIwCwYDVR0PBAQDAgeAMA0G
CSqGSIb3DQEBCwUAA4GBAJ2VI5KkHDTuCcAQ/f+yhLg8gNyvVlKX2MIVG0CC0u9a
DFe9xj4LgfZ7yfX0Ep2ATE64B7RLAkUt09j8MtQZmcqD8LXpBuNxBD8yLhjPGTac
rQHOcwT3w+wE+/pCuezyyhgFnrL0NdoQHiYQcikbN8LkfSLK7zU+qOnrHuFbTkkh
-----END CERTIFICATE-----
