Certificate:
    Data:
        Version: 3 (0x2)
        Serial Number: 9 (0x9)
    Signature Algorithm: sha256WithRSAEncryption
        Issuer: CN=Easy-RSA CA
        Validity
            Not Before: Nov 19 14:19:24 2014 GMT
            Not After : Nov 16 14:19:24 2024 GMT
        Subject: CN=adrien_server
        Subject Public Key Info:
            Public Key Algorithm: rsaEncryption
                Public-Key: (1024 bit)
                Modulus:
                    00:a7:60:8f:64:60:69:fd:9c:8f:2b:69:ac:0f:c3:
                    de:02:5d:57:1a:da:f8:cd:bc:a2:52:48:10:77:3f:
                    fa:26:68:14:44:4a:27:bf:9d:21:41:87:ce:78:b8:
                    12:09:27:3f:4c:e4:ee:3e:79:cc:d5:45:91:bd:bd:
                    a1:dd:e1:cf:75:71:a2:3b:68:f1:06:9e:e9:1e:2e:
                    c2:99:06:64:b6:20:97:23:1a:9a:c3:e8:9b:a4:55:
                    5b:2d:48:69:90:86:f6:f9:7a:5a:d8:7b:42:04:e4:
                    31:c8:61:f0:a4:90:88:18:1d:b3:f8:5f:e9:8f:5a:
                    b9:97:bb:b9:cc:ae:6d:e7:55
                Exponent: 65537 (0x10001)
        X509v3 extensions:
            X509v3 Basic Constraints: 
                CA:FALSE
            X509v3 Subject Key Identifier: 
                04:4F:27:23:FE:AE:53:34:FD:FA:56:4A:C8:28:38:D7:31:C5:30:61
            X509v3 Authority Key Identifier: 
                keyid:05:F4:95:4C:D9:2E:0F:DE:EF:60:B6:9C:4A:DC:88:FB:A5:CD:77:76
                DirName:/CN=Easy-RSA CA
                serial:80:FD:3E:5C:F6:9C:26:4D

            X509v3 Extended Key Usage: 
                TLS Web Server Authentication
            X509v3 Key Usage: 
                Digital Signature, Key Encipherment
    Signature Algorithm: sha256WithRSAEncryption
         07:b1:91:7e:21:60:f5:f2:76:3f:4a:cd:94:17:75:16:d8:2f:
         13:b0:4c:eb:6e:ff:91:8a:ae:d0:19:70:a1:f3:b3:f0:48:74:
         6c:a0:dc:b3:28:45:76:95:f9:65:b5:13:59:79:67:82:dc:9e:
         de:30:9a:a1:7f:3c:9d:fc:8e:0f:d7:08:53:d2:1c:77:05:31:
         aa:55:96:e5:7b:af:6c:70:f3:3c:70:29:19:13:b3:0a:2e:6e:
         7d:0b:e0:84:9a:98:08:b8:27:e2:2c:0e:fe:03:20:e6:08:5f:
         6c:85:d0:b7:d5:f8:fe:65:68:ed:39:5f:03:fb:80:b9:0a:7d:
         45:1a
-----BEGIN CERTIFICATE-----
MIICPDCCAaWgAwIBAgIBCTANBgkqhkiG9w0BAQsFADAWMRQwEgYDVQQDEwtFYXN5
LVJTQSBDQTAeFw0xNDExMTkxNDE5MjRaFw0yNDExMTYxNDE5MjRaMBgxFjAUBgNV
BAMUDWFkcmllbl9zZXJ2ZXIwgZ8wDQYJKoZIhvcNAQEBBQADgY0AMIGJAoGBAKdg
j2Rgaf2cjytprA/D3gJdVxra+M28olJIEHc/+iZoFERKJ7+dIUGHzni4EgknP0zk
7j55zNVFkb29od3hz3Vxojto8Qae6R4uwpkGZLYglyMamsPom6RVWy1IaZCG9vl6
Wth7QgTkMchh8KSQiBgds/hf6Y9auZe7ucyubedVAgMBAAGjgZcwgZQwCQYDVR0T
BAIwADAdBgNVHQ4EFgQUBE8nI/6uUzT9+lZKyCg41zHFMGEwRgYDVR0jBD8wPYAU
BfSVTNkuD97vYLacStyI+6XNd3ahGqQYMBYxFDASBgNVBAMTC0Vhc3ktUlNBIENB
ggkAgP0+XPacJk0wEwYDVR0lBAwwCgYIKwYBBQUHAwEwCwYDVR0PBAQDAgWgMA0G
CSqGSIb3DQEBCwUAA4GBAAexkX4hYPXydj9KzZQXdRbYLxOwTOtu/5GKrtAZcKHz
s/BIdGyg3LMoRXaV+WW1E1l5Z4Lcnt4wmqF/PJ38jg/XCFPSHHcFMapVluV7r2xw
8zxwKRkTswoubn0L4ISamAi4J+IsDv4DIOYIX2yF0LfV+P5laO05XwP7gLkKfUUa
-----END CERTIFICATE-----
