Certificate:
    Data:
        Version: 3 (0x2)
        Serial Number: 10 (0xa)
    Signature Algorithm: sha256WithRSAEncryption
        Issuer: CN=Easy-RSA CA
        Validity
            Not Before: Nov 19 14:30:05 2014 GMT
            Not After : Nov 16 14:30:05 2024 GMT
        Subject: CN=raphael_client
        Subject Public Key Info:
            Public Key Algorithm: rsaEncryption
                Public-Key: (1024 bit)
                Modulus:
                    00:bf:70:d3:82:94:24:96:1c:eb:8b:ee:7f:fd:1d:
                    49:b6:56:ed:01:70:10:0f:52:de:62:40:68:be:d1:
                    79:03:2d:ff:54:84:e3:d9:dd:fc:eb:35:e6:a5:1f:
                    27:98:90:0b:7a:81:1a:10:5a:a8:90:73:c8:6d:60:
                    e1:e0:ef:95:d7:54:8f:e2:d8:8c:35:b7:0a:e6:ef:
                    cf:5c:0d:b5:98:e6:7c:ce:c3:c2:18:36:e5:e0:a9:
                    15:a8:e0:d9:0e:1b:2e:ad:31:ad:46:80:1f:dd:23:
                    42:be:cc:92:60:72:3e:b0:21:ee:32:aa:07:6b:d1:
                    8e:fb:58:c3:d3:bf:b1:d0:e9
                Exponent: 65537 (0x10001)
        X509v3 extensions:
            X509v3 Basic Constraints: 
                CA:FALSE
            X509v3 Subject Key Identifier: 
                C2:1D:EE:EE:90:75:41:DF:37:E9:B0:05:C5:62:5E:EE:34:E3:AC:51
            X509v3 Authority Key Identifier: 
                keyid:05:F4:95:4C:D9:2E:0F:DE:EF:60:B6:9C:4A:DC:88:FB:A5:CD:77:76
                DirName:/CN=Easy-RSA CA
                serial:80:FD:3E:5C:F6:9C:26:4D

            X509v3 Extended Key Usage: 
                TLS Web Client Authentication
            X509v3 Key Usage: 
                Digital Signature
    Signature Algorithm: sha256WithRSAEncryption
         a1:fc:50:2c:2a:70:8a:df:03:2a:3f:56:ba:67:36:9e:0c:12:
         b5:f5:f0:10:01:4d:e9:3a:00:a2:84:88:31:70:7e:33:bc:7d:
         80:07:fb:03:fb:35:8a:95:9d:a3:9d:1c:99:43:cb:2d:3d:07:
         a1:2e:52:80:16:aa:e4:af:25:b8:c2:c9:60:42:21:62:ba:cd:
         cc:62:13:27:53:24:27:50:65:a2:50:ce:90:89:88:d3:ac:7a:
         d3:9a:06:52:69:6d:d0:fa:b7:c5:e3:d1:7f:d9:aa:61:6d:64:
         dc:8a:fe:60:90:5c:43:a9:b9:e0:eb:f5:6c:85:45:58:1c:87:
         81:ed
-----BEGIN CERTIFICATE-----
MIICPTCCAaagAwIBAgIBCjANBgkqhkiG9w0BAQsFADAWMRQwEgYDVQQDEwtFYXN5
LVJTQSBDQTAeFw0xNDExMTkxNDMwMDVaFw0yNDExMTYxNDMwMDVaMBkxFzAVBgNV
BAMUDnJhcGhhZWxfY2xpZW50MIGfMA0GCSqGSIb3DQEBAQUAA4GNADCBiQKBgQC/
cNOClCSWHOuL7n/9HUm2Vu0BcBAPUt5iQGi+0XkDLf9UhOPZ3fzrNealHyeYkAt6
gRoQWqiQc8htYOHg75XXVI/i2Iw1twrm789cDbWY5nzOw8IYNuXgqRWo4NkOGy6t
Ma1GgB/dI0K+zJJgcj6wIe4yqgdr0Y77WMPTv7HQ6QIDAQABo4GXMIGUMAkGA1Ud
EwQCMAAwHQYDVR0OBBYEFMId7u6QdUHfN+mwBcViXu4046xRMEYGA1UdIwQ/MD2A
FAX0lUzZLg/e72C2nErciPulzXd2oRqkGDAWMRQwEgYDVQQDEwtFYXN5LVJTQSBD
QYIJAID9Plz2nCZNMBMGA1UdJQQMMAoGCCsGAQUFBwMCMAsGA1UdDwQEAwIHgDAN
BgkqhkiG9w0BAQsFAAOBgQCh/FAsKnCK3wMqP1a6ZzaeDBK19fAQAU3pOgCihIgx
cH4zvH2AB/sD+zWKlZ2jnRyZQ8stPQehLlKAFqrkryW4wslgQiFius3MYhMnUyQn
UGWiUM6QiYjTrHrTmgZSaW3Q+rfF49F/2aphbWTciv5gkFxDqbng6/VshUVYHIeB
7Q==
-----END CERTIFICATE-----
