Certificate:
    Data:
        Version: 3 (0x2)
        Serial Number: 11 (0xb)
    Signature Algorithm: sha256WithRSAEncryption
        Issuer: CN=Easy-RSA CA
        Validity
            Not Before: Nov 19 14:30:13 2014 GMT
            Not After : Nov 16 14:30:13 2024 GMT
        Subject: CN=raphael_server
        Subject Public Key Info:
            Public Key Algorithm: rsaEncryption
                Public-Key: (1024 bit)
                Modulus:
                    00:ab:79:1f:5d:6d:14:7b:ad:ae:72:1b:1e:1b:c8:
                    e0:9a:ed:86:ae:c7:1a:ad:3d:63:a4:2f:16:32:aa:
                    8c:6a:15:f9:ae:71:e3:62:18:05:80:eb:40:1d:1f:
                    a8:c2:56:7f:e5:0f:41:e9:f7:58:59:13:34:b2:55:
                    79:32:99:c8:cc:db:fd:8a:1e:75:0d:76:45:df:94:
                    c4:47:4c:2a:c5:8b:d8:29:bf:0d:f6:f8:cc:1f:7f:
                    88:1a:58:58:7e:af:49:f1:41:57:55:99:c8:77:dd:
                    ed:3b:20:e6:b0:a6:84:91:f1:97:3a:e6:47:e4:72:
                    ba:5c:20:96:7d:90:00:bc:63
                Exponent: 65537 (0x10001)
        X509v3 extensions:
            X509v3 Basic Constraints: 
                CA:FALSE
            X509v3 Subject Key Identifier: 
                49:19:27:99:E1:F1:E3:44:AA:24:B4:60:93:09:0B:A1:73:B2:E0:0F
            X509v3 Authority Key Identifier: 
                keyid:05:F4:95:4C:D9:2E:0F:DE:EF:60:B6:9C:4A:DC:88:FB:A5:CD:77:76
                DirName:/CN=Easy-RSA CA
                serial:80:FD:3E:5C:F6:9C:26:4D

            X509v3 Extended Key Usage: 
                TLS Web Server Authentication
            X509v3 Key Usage: 
                Digital Signature, Key Encipherment
    Signature Algorithm: sha256WithRSAEncryption
         1a:22:83:7b:d9:8b:ac:2e:92:68:c3:6b:98:71:29:1f:80:70:
         f4:b3:5c:a6:ad:3f:b1:12:50:a1:6c:c4:9e:0f:82:75:9a:a1:
         a4:c7:78:82:1e:54:3f:ed:a1:d2:78:71:3b:a2:6e:9f:14:5d:
         52:61:d1:88:18:b4:2e:12:8e:73:5e:ec:4b:70:2b:44:f9:fe:
         e7:95:73:fd:02:7e:e5:7b:a8:07:a3:d7:d6:c5:62:2b:67:7d:
         bf:71:d9:48:f5:03:3c:87:81:93:98:9a:d4:30:7a:3f:99:ab:
         4f:31:89:44:85:09:db:94:82:5b:b3:f8:64:4e:c3:e4:d0:9e:
         43:aa
-----BEGIN CERTIFICATE-----
MIICPTCCAaagAwIBAgIBCzANBgkqhkiG9w0BAQsFADAWMRQwEgYDVQQDEwtFYXN5
LVJTQSBDQTAeFw0xNDExMTkxNDMwMTNaFw0yNDExMTYxNDMwMTNaMBkxFzAVBgNV
BAMUDnJhcGhhZWxfc2VydmVyMIGfMA0GCSqGSIb3DQEBAQUAA4GNADCBiQKBgQCr
eR9dbRR7ra5yGx4byOCa7YauxxqtPWOkLxYyqoxqFfmuceNiGAWA60AdH6jCVn/l
D0Hp91hZEzSyVXkymcjM2/2KHnUNdkXflMRHTCrFi9gpvw32+Mwff4gaWFh+r0nx
QVdVmch33e07IOawpoSR8Zc65kfkcrpcIJZ9kAC8YwIDAQABo4GXMIGUMAkGA1Ud
EwQCMAAwHQYDVR0OBBYEFEkZJ5nh8eNEqiS0YJMJC6FzsuAPMEYGA1UdIwQ/MD2A
FAX0lUzZLg/e72C2nErciPulzXd2oRqkGDAWMRQwEgYDVQQDEwtFYXN5LVJTQSBD
QYIJAID9Plz2nCZNMBMGA1UdJQQMMAoGCCsGAQUFBwMBMAsGA1UdDwQEAwIFoDAN
BgkqhkiG9w0BAQsFAAOBgQAaIoN72YusLpJow2uYcSkfgHD0s1ymrT+xElChbMSe
D4J1mqGkx3iCHlQ/7aHSeHE7om6fFF1SYdGIGLQuEo5zXuxLcCtE+f7nlXP9An7l
e6gHo9fWxWIrZ32/cdlI9QM8h4GTmJrUMHo/matPMYlEhQnblIJbs/hkTsPk0J5D
qg==
-----END CERTIFICATE-----
