Certificate:
    Data:
        Version: 3 (0x2)
        Serial Number: 12 (0xc)
    Signature Algorithm: sha256WithRSAEncryption
        Issuer: CN=Easy-RSA CA
        Validity
            Not Before: Nov 19 14:33:36 2014 GMT
            Not After : Nov 16 14:33:36 2024 GMT
        Subject: CN=alain_client
        Subject Public Key Info:
            Public Key Algorithm: rsaEncryption
                Public-Key: (1024 bit)
                Modulus:
                    00:c3:52:f0:82:93:e5:07:05:9c:56:9a:d7:b6:34:
                    89:81:c0:97:d7:ce:bf:1a:dc:63:5a:82:2e:50:f2:
                    bd:01:da:d8:3b:b2:ef:88:66:67:c9:b9:ff:cf:82:
                    5b:2a:28:8f:1f:ad:56:e9:0a:9a:6d:82:e2:af:f2:
                    1f:36:c6:24:7e:2b:60:99:a2:a6:d8:8f:80:f9:b6:
                    52:9a:29:5e:71:aa:7b:2e:3d:ae:12:e6:2f:9d:8d:
                    1e:9e:a6:e2:72:01:00:ee:f1:87:ed:a1:bb:6b:49:
                    c7:85:a6:27:3b:b4:63:c6:5f:dd:4d:85:e2:f5:22:
                    b0:ee:e6:18:6f:f8:59:72:33
                Exponent: 65537 (0x10001)
        X509v3 extensions:
            X509v3 Basic Constraints: 
                CA:FALSE
            X509v3 Subject Key Identifier: 
                0B:A1:99:74:42:94:B4:12:A5:00:F6:9C:8D:DF:52:21:3B:CA:34:0D
            X509v3 Authority Key Identifier: 
                keyid:05:F4:95:4C:D9:2E:0F:DE:EF:60:B6:9C:4A:DC:88:FB:A5:CD:77:76
                DirName:/CN=Easy-RSA CA
                serial:80:FD:3E:5C:F6:9C:26:4D

            X509v3 Extended Key Usage: 
                TLS Web Client Authentication
            X509v3 Key Usage: 
                Digital Signature
    Signature Algorithm: sha256WithRSAEncryption
         57:af:a1:f3:39:69:57:35:9b:31:e5:dc:f6:51:8a:3f:ba:d8:
         c1:ca:13:c4:b4:2d:ff:11:f6:75:84:78:bc:8a:ad:29:28:ff:
         3f:0d:61:20:08:0d:42:c7:eb:a8:2e:88:90:f4:ec:ee:00:c7:
         95:d9:c0:d0:aa:59:aa:ce:a3:25:59:02:a1:fc:cf:b1:14:14:
         27:f2:e2:d1:15:6d:6c:ca:d3:f2:08:23:8d:6a:c6:0e:cf:78:
         42:9e:68:44:e5:66:1e:ca:88:26:3e:97:3d:1f:07:3f:0c:be:
         bc:d9:76:11:0a:cb:9f:4d:c7:7f:99:2c:9b:77:c8:f9:8c:9b:
         9d:1b
-----BEGIN CERTIFICATE-----
MIICOzCCAaSgAwIBAgIBDDANBgkqhkiG9w0BAQsFADAWMRQwEgYDVQQDEwtFYXN5
LVJTQSBDQTAeFw0xNDExMTkxNDMzMzZaFw0yNDExMTYxNDMzMzZaMBcxFTATBgNV
BAMUDGFsYWluX2NsaWVudDCBnzANBgkqhkiG9w0BAQEFAAOBjQAwgYkCgYEAw1Lw
gpPlBwWcVprXtjSJgcCX186/GtxjWoIuUPK9AdrYO7LviGZnybn/z4JbKiiPH61W
6QqabYLir/IfNsYkfitgmaKm2I+A+bZSmilecap7Lj2uEuYvnY0enqbicgEA7vGH
7aG7a0nHhaYnO7Rjxl/dTYXi9SKw7uYYb/hZcjMCAwEAAaOBlzCBlDAJBgNVHRME
AjAAMB0GA1UdDgQWBBQLoZl0QpS0EqUA9pyN31IhO8o0DTBGBgNVHSMEPzA9gBQF
9JVM2S4P3u9gtpxK3Ij7pc13dqEapBgwFjEUMBIGA1UEAxMLRWFzeS1SU0EgQ0GC
CQCA/T5c9pwmTTATBgNVHSUEDDAKBggrBgEFBQcDAjALBgNVHQ8EBAMCB4AwDQYJ
KoZIhvcNAQELBQADgYEAV6+h8zlpVzWbMeXc9lGKP7rYwcoTxLQt/xH2dYR4vIqt
KSj/Pw1hIAgNQsfrqC6IkPTs7gDHldnA0KpZqs6jJVkCofzPsRQUJ/Li0RVtbMrT
8ggjjWrGDs94Qp5oROVmHsqIJj6XPR8HPwy+vNl2EQrLn03Hf5ksm3fI+YybnRs=
-----END CERTIFICATE-----
