Certificate:
    Data:
        Version: 3 (0x2)
        Serial Number: 13 (0xd)
    Signature Algorithm: sha256WithRSAEncryption
        Issuer: CN=Easy-RSA CA
        Validity
            Not Before: Nov 19 14:33:41 2014 GMT
            Not After : Nov 16 14:33:41 2024 GMT
        Subject: CN=alain_server
        Subject Public Key Info:
            Public Key Algorithm: rsaEncryption
                Public-Key: (1024 bit)
                Modulus:
                    00:cf:ff:5b:99:61:24:13:03:e3:e8:20:80:3a:96:
                    0a:f9:a1:de:52:c5:e1:cf:a8:dd:a1:81:cc:3f:b6:
                    61:ca:cf:7d:14:3a:52:5f:92:6c:aa:e4:74:fa:35:
                    91:ab:a6:44:4a:47:a8:12:09:7b:03:d5:be:f4:64:
                    74:40:bd:50:72:25:e4:85:ec:e8:3b:b9:9a:25:94:
                    bd:b5:4f:1f:e0:f4:4a:76:43:bd:de:a7:d7:55:4f:
                    3c:35:a1:d4:bf:b6:66:36:00:21:db:ea:1a:b9:cc:
                    10:5e:82:af:3d:95:dd:00:d7:75:92:64:a7:d3:29:
                    11:f6:54:77:c9:a1:be:b7:13
                Exponent: 65537 (0x10001)
        X509v3 extensions:
            X509v3 Basic Constraints: 
                CA:FALSE
            X509v3 Subject Key Identifier: 
                D2:08:42:7D:CE:E7:BC:D7:92:F8:0E:2D:40:C5:7C:2B:9A:61:C6:19
            X509v3 Authority Key Identifier: 
                keyid:05:F4:95:4C:D9:2E:0F:DE:EF:60:B6:9C:4A:DC:88:FB:A5:CD:77:76
                DirName:/CN=Easy-RSA CA
                serial:80:FD:3E:5C:F6:9C:26:4D

            X509v3 Extended Key Usage: 
                TLS Web Server Authentication
            X509v3 Key Usage: 
                Digital Signature, Key Encipherment
    Signature Algorithm: sha256WithRSAEncryption
         05:f7:3c:96:75:ef:0c:b4:65:fa:53:c0:7f:84:80:b4:73:fd:
         27:d3:24:74:31:01:df:6f:2b:bd:3f:14:38:a0:8b:87:55:54:
         70:92:e2:48:67:33:90:bd:a7:9e:21:29:fc:83:ab:9b:f8:b5:
         53:92:14:91:02:11:2d:ad:74:90:cb:ec:30:39:0c:d2:e1:50:
         0e:fe:79:3f:a1:c3:d4:a5:55:06:11:b8:28:ac:57:5c:a1:a5:
         8c:94:39:0a:03:fe:81:92:f1:58:0e:ec:60:5a:33:d4:9f:f5:
         4c:e8:16:b9:a0:e8:89:93:24:22:3e:6c:9c:60:a8:9f:b6:9a:
         8b:37
-----BEGIN CERTIFICATE-----
MIICOzCCAaSgAwIBAgIBDTANBgkqhkiG9w0BAQsFADAWMRQwEgYDVQQDEwtFYXN5
LVJTQSBDQTAeFw0xNDExMTkxNDMzNDFaFw0yNDExMTYxNDMzNDFaMBcxFTATBgNV
BAMUDGFsYWluX3NlcnZlcjCBnzANBgkqhkiG9w0BAQEFAAOBjQAwgYkCgYEAz/9b
mWEkEwPj6CCAOpYK+aHeUsXhz6jdoYHMP7Zhys99FDpSX5JsquR0+jWRq6ZESkeo
Egl7A9W+9GR0QL1QciXkhezoO7maJZS9tU8f4PRKdkO93qfXVU88NaHUv7ZmNgAh
2+oaucwQXoKvPZXdANd1kmSn0ykR9lR3yaG+txMCAwEAAaOBlzCBlDAJBgNVHRME
AjAAMB0GA1UdDgQWBBTSCEJ9zue815L4Di1AxXwrmmHGGTBGBgNVHSMEPzA9gBQF
9JVM2S4P3u9gtpxK3Ij7pc13dqEapBgwFjEUMBIGA1UEAxMLRWFzeS1SU0EgQ0GC
CQCA/T5c9pwmTTATBgNVHSUEDDAKBggrBgEFBQcDATALBgNVHQ8EBAMCBaAwDQYJ
KoZIhvcNAQELBQADgYEABfc8lnXvDLRl+lPAf4SAtHP9J9MkdDEB328rvT8UOKCL
h1VUcJLiSGczkL2nniEp/IOrm/i1U5IUkQIRLa10kMvsMDkM0uFQDv55P6HD1KVV
BhG4KKxXXKGljJQ5CgP+gZLxWA7sYFoz1J/1TOgWuaDoiZMkIj5snGCon7aaizc=
-----END CERTIFICATE-----
