Certificate:
    Data:
        Version: 3 (0x2)
        Serial Number: 14 (0xe)
    Signature Algorithm: sha256WithRSAEncryption
        Issuer: CN=Easy-RSA CA
        Validity
            Not Before: Nov 19 14:43:30 2014 GMT
            Not After : Nov 16 14:43:30 2024 GMT
        Subject: CN=alain_client
        Subject Public Key Info:
            Public Key Algorithm: rsaEncryption
                Public-Key: (1024 bit)
                Modulus:
                    00:c8:d0:41:f3:b7:a3:57:04:bb:44:e4:e4:fb:ba:
                    fb:f4:56:c5:89:d7:71:5d:73:e6:20:42:a7:5c:40:
                    46:9a:f2:4e:f9:72:d2:32:76:71:7f:9b:a9:9f:84:
                    40:14:2a:80:bd:61:48:8c:af:66:32:ec:f9:61:7f:
                    63:ed:92:11:0b:cb:5a:0a:3f:2e:2d:46:45:b2:24:
                    b9:fc:b3:e7:84:34:6a:24:33:9e:fb:97:02:0c:2b:
                    56:eb:f3:8a:a2:ba:c4:8c:b5:fa:30:2e:b5:fb:3d:
                    b1:b8:f0:87:72:ea:f9:2a:92:96:4e:0c:e6:c4:d6:
                    03:eb:1f:c5:16:12:76:a6:7d
                Exponent: 65537 (0x10001)
        X509v3 extensions:
            X509v3 Basic Constraints: 
                CA:FALSE
            X509v3 Subject Key Identifier: 
                5F:D8:48:A7:9E:9A:CF:5A:DC:60:0F:7E:A0:2E:9D:58:EE:5F:F6:44
            X509v3 Authority Key Identifier: 
                keyid:05:F4:95:4C:D9:2E:0F:DE:EF:60:B6:9C:4A:DC:88:FB:A5:CD:77:76
                DirName:/CN=Easy-RSA CA
                serial:80:FD:3E:5C:F6:9C:26:4D

            X509v3 Extended Key Usage: 
                TLS Web Client Authentication
            X509v3 Key Usage: 
                Digital Signature
    Signature Algorithm: sha256WithRSAEncryption
         7f:c6:0f:43:d0:d2:78:aa:2e:f8:63:09:21:5e:0b:4a:d2:61:
         8b:0c:05:50:be:3d:9f:d8:ce:cc:57:71:6f:1e:58:9e:f3:b4:
         59:d9:fe:8f:f1:d1:da:41:82:e3:11:16:d8:e6:45:3e:c3:7a:
         f0:6e:2a:6e:0d:ea:8e:0f:77:8b:23:91:e0:ed:13:ce:65:57:
         11:92:0c:89:47:ec:92:85:61:ed:68:af:e0:e5:b5:bb:ea:37:
         4a:94:35:45:01:73:3c:4e:d5:47:d6:5f:50:88:64:b3:2a:08:
         05:e2:3e:0b:f8:83:bc:6b:f4:c9:f2:1d:c2:21:58:07:b1:f1:
         e1:ef
-----BEGIN CERTIFICATE-----
MIICOzCCAaSgAwIBAgIBDjANBgkqhkiG9w0BAQsFADAWMRQwEgYDVQQDEwtFYXN5
LVJTQSBDQTAeFw0xNDExMTkxNDQzMzBaFw0yNDExMTYxNDQzMzBaMBcxFTATBgNV
BAMUDGFsYWluX2NsaWVudDCBnzANBgkqhkiG9w0BAQEFAAOBjQAwgYkCgYEAyNBB
87ejVwS7ROTk+7r79FbFiddxXXPmIEKnXEBGmvJO+XLSMnZxf5upn4RAFCqAvWFI
jK9mMuz5YX9j7ZIRC8taCj8uLUZFsiS5/LPnhDRqJDOe+5cCDCtW6/OKorrEjLX6
MC61+z2xuPCHcur5KpKWTgzmxNYD6x/FFhJ2pn0CAwEAAaOBlzCBlDAJBgNVHRME
AjAAMB0GA1UdDgQWBBRf2EinnprPWtxgD36gLp1Y7l/2RDBGBgNVHSMEPzA9gBQF
9JVM2S4P3u9gtpxK3Ij7pc13dqEapBgwFjEUMBIGA1UEAxMLRWFzeS1SU0EgQ0GC
CQCA/T5c9pwmTTATBgNVHSUEDDAKBggrBgEFBQcDAjALBgNVHQ8EBAMCB4AwDQYJ
KoZIhvcNAQELBQADgYEAf8YPQ9DSeKou+GMJIV4LStJhiwwFUL49n9jOzFdxbx5Y
nvO0Wdn+j/HR2kGC4xEW2OZFPsN68G4qbg3qjg93iyOR4O0TzmVXEZIMiUfskoVh
7Wiv4OW1u+o3SpQ1RQFzPE7VR9ZfUIhksyoIBeI+C/iDvGv0yfIdwiFYB7Hx4e8=
-----END CERTIFICATE-----
