Certificate:
    Data:
        Version: 3 (0x2)
        Serial Number: 16 (0x10)
    Signature Algorithm: sha256WithRSAEncryption
        Issuer: CN=Easy-RSA CA
        Validity
            Not Before: Nov 25 09:19:19 2014 GMT
            Not After : Nov 22 09:19:19 2024 GMT
        Subject: CN=test_client
        Subject Public Key Info:
            Public Key Algorithm: rsaEncryption
                Public-Key: (1024 bit)
                Modulus:
                    00:c3:a1:07:82:d6:20:31:86:2f:a3:ef:b5:15:65:
                    ef:1e:d6:b9:54:37:19:4a:8d:42:ce:73:86:b6:32:
                    04:69:60:fe:9b:50:fc:9a:4a:2a:bb:11:38:5c:a3:
                    9e:5a:61:43:03:9c:13:8c:c5:96:1f:07:b8:89:4d:
                    0d:9f:b1:7a:27:29:ce:97:f6:6f:56:75:1b:83:aa:
                    a9:54:16:15:9f:05:44:0a:e6:26:ca:0b:5d:d4:f3:
                    80:ca:90:b1:b1:d5:6a:79:9e:dc:35:93:08:d8:84:
                    b4:85:ea:da:43:3b:b0:32:5a:ee:11:47:af:a2:1a:
                    df:5f:81:95:c4:31:9f:5f:39
                Exponent: 65537 (0x10001)
        X509v3 extensions:
            X509v3 Basic Constraints: 
                CA:FALSE
            X509v3 Subject Key Identifier: 
                A4:DB:9D:E0:25:12:50:56:E3:B2:EA:49:02:AA:24:88:C5:27:46:19
            X509v3 Authority Key Identifier: 
                keyid:05:F4:95:4C:D9:2E:0F:DE:EF:60:B6:9C:4A:DC:88:FB:A5:CD:77:76
                DirName:/CN=Easy-RSA CA
                serial:80:FD:3E:5C:F6:9C:26:4D

            X509v3 Extended Key Usage: 
                TLS Web Client Authentication
            X509v3 Key Usage: 
                Digital Signature
    Signature Algorithm: sha256WithRSAEncryption
         38:25:42:e6:6a:1c:f5:f4:83:c5:60:46:4f:a2:85:48:4a:fe:
         f2:0a:b9:68:6d:f8:82:c5:db:8b:51:bc:05:24:e6:06:15:0f:
         81:3f:5d:6a:82:fd:4b:bb:40:30:c7:6b:5a:6c:6c:5d:a3:a3:
         7a:90:35:fb:1e:53:fa:5c:a3:46:de:eb:9a:0e:50:35:7d:2c:
         64:5c:7a:fe:56:5d:0e:c5:55:be:92:c7:4b:2f:81:e3:be:7e:
         c4:23:44:8e:fa:dd:ae:b8:cc:d1:12:a5:8d:45:0e:fb:27:a4:
         1f:fa:10:2a:7c:24:41:4b:35:e7:df:78:f8:23:24:43:af:19:
         c0:95
-----BEGIN CERTIFICATE-----
MIICOjCCAaOgAwIBAgIBEDANBgkqhkiG9w0BAQsFADAWMRQwEgYDVQQDEwtFYXN5
LVJTQSBDQTAeFw0xNDExMjUwOTE5MTlaFw0yNDExMjIwOTE5MTlaMBYxFDASBgNV
BAMUC3Rlc3RfY2xpZW50MIGfMA0GCSqGSIb3DQEBAQUAA4GNADCBiQKBgQDDoQeC
1iAxhi+j77UVZe8e1rlUNxlKjULOc4a2MgRpYP6bUPyaSiq7EThco55aYUMDnBOM
xZYfB7iJTQ2fsXonKc6X9m9WdRuDqqlUFhWfBUQK5ibKC13U84DKkLGx1Wp5ntw1
kwjYhLSF6tpDO7AyWu4RR6+iGt9fgZXEMZ9fOQIDAQABo4GXMIGUMAkGA1UdEwQC
MAAwHQYDVR0OBBYEFKTbneAlElBW47LqSQKqJIjFJ0YZMEYGA1UdIwQ/MD2AFAX0
lUzZLg/e72C2nErciPulzXd2oRqkGDAWMRQwEgYDVQQDEwtFYXN5LVJTQSBDQYIJ
AID9Plz2nCZNMBMGA1UdJQQMMAoGCCsGAQUFBwMCMAsGA1UdDwQEAwIHgDANBgkq
hkiG9w0BAQsFAAOBgQA4JULmahz19IPFYEZPooVISv7yCrlobfiCxduLUbwFJOYG
FQ+BP11qgv1Lu0Awx2tabGxdo6N6kDX7HlP6XKNG3uuaDlA1fSxkXHr+Vl0OxVW+
ksdLL4Hjvn7EI0SO+t2uuMzREqWNRQ77J6Qf+hAqfCRBSzXn33j4IyRDrxnAlQ==
-----END CERTIFICATE-----
