Certificate:
    Data:
        Version: 3 (0x2)
        Serial Number: 17 (0x11)
    Signature Algorithm: sha256WithRSAEncryption
        Issuer: CN=Easy-RSA CA
        Validity
            Not Before: Nov 25 09:19:25 2014 GMT
            Not After : Nov 22 09:19:25 2024 GMT
        Subject: CN=test_server
        Subject Public Key Info:
            Public Key Algorithm: rsaEncryption
                Public-Key: (1024 bit)
                Modulus:
                    00:bd:b6:56:95:0b:ad:f0:6e:ac:6e:d3:00:24:9e:
                    65:f8:e6:57:68:db:29:62:85:de:84:00:72:14:08:
                    c4:ed:ba:bb:47:45:90:c3:18:1e:1a:68:08:a7:49:
                    97:68:68:b6:92:aa:95:8f:18:51:3f:8f:2e:7a:c8:
                    69:a3:91:50:68:94:2e:c6:ce:9c:72:46:da:4d:63:
                    02:3a:1b:5b:21:8f:2e:4d:8e:c0:ee:e9:4c:25:a3:
                    82:18:d8:5a:cc:05:b0:c9:02:08:fb:7f:46:75:da:
                    45:89:2e:b8:ee:14:e5:7b:0a:40:2e:0c:4c:e2:84:
                    68:c4:93:f4:1f:33:f4:6c:cd
                Exponent: 65537 (0x10001)
        X509v3 extensions:
            X509v3 Basic Constraints: 
                CA:FALSE
            X509v3 Subject Key Identifier: 
                22:BB:A3:E9:95:0E:F4:20:A5:72:65:C2:1D:AD:94:AF:06:29:D4:87
            X509v3 Authority Key Identifier: 
                keyid:05:F4:95:4C:D9:2E:0F:DE:EF:60:B6:9C:4A:DC:88:FB:A5:CD:77:76
                DirName:/CN=Easy-RSA CA
                serial:80:FD:3E:5C:F6:9C:26:4D

            X509v3 Extended Key Usage: 
                TLS Web Server Authentication
            X509v3 Key Usage: 
                Digital Signature, Key Encipherment
    Signature Algorithm: sha256WithRSAEncryption
         99:3d:8d:4c:ee:9e:9c:e0:ec:d5:0e:72:26:5a:84:b8:43:3a:
         a6:f6:4a:d4:5e:5a:3e:41:d2:c7:0f:8b:17:f3:48:1c:02:0b:
         cd:3d:94:6c:e8:98:33:e2:c7:ca:98:27:06:33:a9:90:85:a0:
         02:9c:72:c2:5a:5c:65:a2:96:ad:03:1b:9b:2a:04:03:dd:20:
         b4:8a:30:08:2f:5d:5c:9c:a4:9e:33:9f:cd:c8:ef:00:98:27:
         4e:56:16:10:af:ed:0b:5b:d2:62:98:a4:2d:80:c4:11:c0:0b:
         70:55:29:ba:42:a7:ab:9c:39:65:40:4c:0e:07:bd:18:8e:d1:
         30:4f
-----BEGIN CERTIFICATE-----
MIICOjCCAaOgAwIBAgIBETANBgkqhkiG9w0BAQsFADAWMRQwEgYDVQQDEwtFYXN5
LVJTQSBDQTAeFw0xNDExMjUwOTE5MjVaFw0yNDExMjIwOTE5MjVaMBYxFDASBgNV
BAMUC3Rlc3Rfc2VydmVyMIGfMA0GCSqGSIb3DQEBAQUAA4GNADCBiQKBgQC9tlaV
C63wbqxu0wAknmX45ldo2ylihd6EAHIUCMTturtHRZDDGB4aaAinSZdoaLaSqpWP
GFE/jy56yGmjkVBolC7GzpxyRtpNYwI6G1shjy5NjsDu6Uwlo4IY2FrMBbDJAgj7
f0Z12kWJLrjuFOV7CkAuDEzihGjEk/QfM/RszQIDAQABo4GXMIGUMAkGA1UdEwQC
MAAwHQYDVR0OBBYEFCK7o+mVDvQgpXJlwh2tlK8GKdSHMEYGA1UdIwQ/MD2AFAX0
lUzZLg/e72C2nErciPulzXd2oRqkGDAWMRQwEgYDVQQDEwtFYXN5LVJTQSBDQYIJ
AID9Plz2nCZNMBMGA1UdJQQMMAoGCCsGAQUFBwMBMAsGA1UdDwQEAwIFoDANBgkq
hkiG9w0BAQsFAAOBgQCZPY1M7p6c4OzVDnImWoS4Qzqm9krUXlo+QdLHD4sX80gc
AgvNPZRs6Jgz4sfKmCcGM6mQhaACnHLCWlxlopatAxubKgQD3SC0ijAIL11cnKSe
M5/NyO8AmCdOVhYQr+0LW9JimKQtgMQRwAtwVSm6QqernDllQEwOB70YjtEwTw==
-----END CERTIFICATE-----
