Certificate:
    Data:
        Version: 3 (0x2)
        Serial Number: 18 (0x12)
    Signature Algorithm: sha256WithRSAEncryption
        Issuer: CN=Easy-RSA CA
        Validity
            Not Before: Dec  2 23:22:15 2014 GMT
            Not After : Nov 29 23:22:15 2024 GMT
        Subject: CN=test_client
        Subject Public Key Info:
            Public Key Algorithm: rsaEncryption
                Public-Key: (1024 bit)
                Modulus:
                    00:c3:a1:07:82:d6:20:31:86:2f:a3:ef:b5:15:65:
                    ef:1e:d6:b9:54:37:19:4a:8d:42:ce:73:86:b6:32:
                    04:69:60:fe:9b:50:fc:9a:4a:2a:bb:11:38:5c:a3:
                    9e:5a:61:43:03:9c:13:8c:c5:96:1f:07:b8:89:4d:
                    0d:9f:b1:7a:27:29:ce:97:f6:6f:56:75:1b:83:aa:
                    a9:54:16:15:9f:05:44:0a:e6:26:ca:0b:5d:d4:f3:
                    80:ca:90:b1:b1:d5:6a:79:9e:dc:35:93:08:d8:84:
                    b4:85:ea:da:43:3b:b0:32:5a:ee:11:47:af:a2:1a:
                    df:5f:81:95:c4:31:9f:5f:39
                Exponent: 65537 (0x10001)
        X509v3 extensions:
            X509v3 Basic Constraints: 
                CA:FALSE
            X509v3 Subject Key Identifier: 
                A4:DB:9D:E0:25:12:50:56:E3:B2:EA:49:02:AA:24:88:C5:27:46:19
            X509v3 Authority Key Identifier: 
                keyid:05:F4:95:4C:D9:2E:0F:DE:EF:60:B6:9C:4A:DC:88:FB:A5:CD:77:76
                DirName:/CN=Easy-RSA CA
                serial:80:FD:3E:5C:F6:9C:26:4D

            X509v3 Extended Key Usage: 
                TLS Web Client Authentication
            X509v3 Key Usage: 
                Digital Signature
    Signature Algorithm: sha256WithRSAEncryption
         6a:d7:da:f9:69:bd:df:4f:8f:9e:35:f4:09:d0:7a:f0:84:26:
         fe:30:36:0a:65:97:25:1d:f9:7c:ae:bb:b9:ad:4c:7a:55:8c:
         11:07:dd:ce:1b:0c:ee:21:1a:9b:27:58:43:2e:94:63:92:f3:
         0d:2f:e5:35:f6:6c:fc:e9:61:5f:40:64:26:21:24:fb:1c:fe:
         a3:a8:7f:7e:42:2e:a1:9b:5e:00:d8:ef:b5:9a:67:06:a9:a5:
         6f:93:ac:94:d3:d1:13:b1:c4:35:d3:4f:3a:a1:4a:a7:17:ab:
         de:5e:74:6a:5b:c7:f5:14:1c:35:5d:05:5f:d3:1b:14:5f:de:
         d4:c3
-----BEGIN CERTIFICATE-----
MIICOjCCAaOgAwIBAgIBEjANBgkqhkiG9w0BAQsFADAWMRQwEgYDVQQDEwtFYXN5
LVJTQSBDQTAeFw0xNDEyMDIyMzIyMTVaFw0yNDExMjkyMzIyMTVaMBYxFDASBgNV
BAMUC3Rlc3RfY2xpZW50MIGfMA0GCSqGSIb3DQEBAQUAA4GNADCBiQKBgQDDoQeC
1iAxhi+j77UVZe8e1rlUNxlKjULOc4a2MgRpYP6bUPyaSiq7EThco55aYUMDnBOM
xZYfB7iJTQ2fsXonKc6X9m9WdRuDqqlUFhWfBUQK5ibKC13U84DKkLGx1Wp5ntw1
kwjYhLSF6tpDO7AyWu4RR6+iGt9fgZXEMZ9fOQIDAQABo4GXMIGUMAkGA1UdEwQC
MAAwHQYDVR0OBBYEFKTbneAlElBW47LqSQKqJIjFJ0YZMEYGA1UdIwQ/MD2AFAX0
lUzZLg/e72C2nErciPulzXd2oRqkGDAWMRQwEgYDVQQDEwtFYXN5LVJTQSBDQYIJ
AID9Plz2nCZNMBMGA1UdJQQMMAoGCCsGAQUFBwMCMAsGA1UdDwQEAwIHgDANBgkq
hkiG9w0BAQsFAAOBgQBq19r5ab3fT4+eNfQJ0HrwhCb+MDYKZZclHfl8rru5rUx6
VYwRB93OGwzuIRqbJ1hDLpRjkvMNL+U19mz86WFfQGQmIST7HP6jqH9+Qi6hm14A
2O+1mmcGqaVvk6yU09ETscQ10086oUqnF6veXnRqW8f1FBw1XQVf0xsUX97Uww==
-----END CERTIFICATE-----
