Certificate:
    Data:
        Version: 3 (0x2)
        Serial Number: 19 (0x13)
    Signature Algorithm: sha256WithRSAEncryption
        Issuer: CN=Easy-RSA CA
        Validity
            Not Before: Dec  2 23:22:19 2014 GMT
            Not After : Nov 29 23:22:19 2024 GMT
        Subject: CN=test_server
        Subject Public Key Info:
            Public Key Algorithm: rsaEncryption
                Public-Key: (1024 bit)
                Modulus:
                    00:bd:b6:56:95:0b:ad:f0:6e:ac:6e:d3:00:24:9e:
                    65:f8:e6:57:68:db:29:62:85:de:84:00:72:14:08:
                    c4:ed:ba:bb:47:45:90:c3:18:1e:1a:68:08:a7:49:
                    97:68:68:b6:92:aa:95:8f:18:51:3f:8f:2e:7a:c8:
                    69:a3:91:50:68:94:2e:c6:ce:9c:72:46:da:4d:63:
                    02:3a:1b:5b:21:8f:2e:4d:8e:c0:ee:e9:4c:25:a3:
                    82:18:d8:5a:cc:05:b0:c9:02:08:fb:7f:46:75:da:
                    45:89:2e:b8:ee:14:e5:7b:0a:40:2e:0c:4c:e2:84:
                    68:c4:93:f4:1f:33:f4:6c:cd
                Exponent: 65537 (0x10001)
        X509v3 extensions:
            X509v3 Basic Constraints: 
                CA:FALSE
            X509v3 Subject Key Identifier: 
                22:BB:A3:E9:95:0E:F4:20:A5:72:65:C2:1D:AD:94:AF:06:29:D4:87
            X509v3 Authority Key Identifier: 
                keyid:05:F4:95:4C:D9:2E:0F:DE:EF:60:B6:9C:4A:DC:88:FB:A5:CD:77:76
                DirName:/CN=Easy-RSA CA
                serial:80:FD:3E:5C:F6:9C:26:4D

            X509v3 Extended Key Usage: 
                TLS Web Server Authentication
            X509v3 Key Usage: 
                Digital Signature, Key Encipherment
    Signature Algorithm: sha256WithRSAEncryption
         65:c4:7e:ec:3e:4d:d0:06:ea:25:74:7f:9f:0a:da:83:17:07:
         fd:86:4e:c3:93:4b:d9:36:fc:fc:34:2c:e1:99:7a:dc:69:cc:
         29:ac:c0:e6:a0:a0:60:d4:83:6b:df:a4:e6:3b:ad:ef:2f:99:
         0f:fb:20:d7:e6:e5:ca:e7:04:72:c8:74:00:7f:cd:94:a6:02:
         e7:f6:cb:b6:3c:99:47:fa:f3:e9:d9:50:fb:fd:14:21:51:42:
         c0:9d:8c:aa:5f:cf:c6:54:de:be:63:86:0a:f1:ee:63:10:da:
         0c:99:58:75:f2:ae:3e:71:a9:f4:f4:7b:9b:0c:b0:d7:d6:9b:
         9b:6a
-----BEGIN CERTIFICATE-----
MIICOjCCAaOgAwIBAgIBEzANBgkqhkiG9w0BAQsFADAWMRQwEgYDVQQDEwtFYXN5
LVJTQSBDQTAeFw0xNDEyMDIyMzIyMTlaFw0yNDExMjkyMzIyMTlaMBYxFDASBgNV
BAMUC3Rlc3Rfc2VydmVyMIGfMA0GCSqGSIb3DQEBAQUAA4GNADCBiQKBgQC9tlaV
C63wbqxu0wAknmX45ldo2ylihd6EAHIUCMTturtHRZDDGB4aaAinSZdoaLaSqpWP
GFE/jy56yGmjkVBolC7GzpxyRtpNYwI6G1shjy5NjsDu6Uwlo4IY2FrMBbDJAgj7
f0Z12kWJLrjuFOV7CkAuDEzihGjEk/QfM/RszQIDAQABo4GXMIGUMAkGA1UdEwQC
MAAwHQYDVR0OBBYEFCK7o+mVDvQgpXJlwh2tlK8GKdSHMEYGA1UdIwQ/MD2AFAX0
lUzZLg/e72C2nErciPulzXd2oRqkGDAWMRQwEgYDVQQDEwtFYXN5LVJTQSBDQYIJ
AID9Plz2nCZNMBMGA1UdJQQMMAoGCCsGAQUFBwMBMAsGA1UdDwQEAwIFoDANBgkq
hkiG9w0BAQsFAAOBgQBlxH7sPk3QBuoldH+fCtqDFwf9hk7Dk0vZNvz8NCzhmXrc
acwprMDmoKBg1INr36TmO63vL5kP+yDX5uXK5wRyyHQAf82UpgLn9su2PJlH+vPp
2VD7/RQhUULAnYyqX8/GVN6+Y4YK8e5jENoMmVh18q4+can09HubDLDX1pubag==
-----END CERTIFICATE-----
